target datalayout = "e-m:e-p270:32:32-p271:32:32-p272:64:64-i64:64-i128:128-f80:128-n8:16:32:64-S128"
target triple = "x86_64-pc-linux-gnu"

@.str.14 = private unnamed_addr constant [35 x i8] c"../openssl/test/quic_newcid_test.c\00", align 1
@cert = internal global ptr null, align 8
@privkey = internal global ptr null, align 8
@.str.20 = private unnamed_addr constant [13 x i8] c"Hello World!\00", align 1
@test_ncid_frame.conn_id = internal constant { i8, <{ [8 x i8], [12 x i8] }> } { i8 8, <{ [8 x i8], [12 x i8] }> <{ [8 x i8] c"3DUf\DE\AD\BE\EF", [12 x i8] zeroinitializer }> }, align 1
@ncid_injected = internal global i64 0, align 8
@.str.21 = private unnamed_addr constant [5 x i8] c"cctx\00", align 1
@.str.22 = private unnamed_addr constant [92 x i8] c"qtest_create_quic_objects(NULL, cctx, NULL, cert, privkey, 0, &qtserv, &cssl, &fault, NULL)\00", align 1
@.str.23 = private unnamed_addr constant [43 x i8] c"qtest_create_quic_connection(qtserv, cssl)\00", align 1
@.str.24 = private unnamed_addr constant [29 x i8] c"SSL_write(cssl, msg, msglen)\00", align 1
@.str.25 = private unnamed_addr constant [7 x i8] c"msglen\00", align 1
@.str.26 = private unnamed_addr constant [64 x i8] c"ossl_quic_tserver_read(qtserv, 0, buf, sizeof(buf), &bytesread)\00", align 1
@.str.27 = private unnamed_addr constant [4 x i8] c"msg\00", align 1
@.str.28 = private unnamed_addr constant [4 x i8] c"buf\00", align 1
@.str.29 = private unnamed_addr constant [70 x i8] c"qtest_fault_set_packet_plain_listener(fault, add_ncid_frame_cb, NULL)\00", align 1
@.str.30 = private unnamed_addr constant [54 x i8] c"ossl_quic_tserver_set_new_local_cid(qtserv, &conn_id)\00", align 1
@.str.31 = private unnamed_addr constant [80 x i8] c"ossl_quic_tserver_write(qtserv, 0, (unsigned char *)msg, msglen, &byteswritten)\00", align 1
@.str.32 = private unnamed_addr constant [14 x i8] c"ncid_injected\00", align 1
@.str.33 = private unnamed_addr constant [13 x i8] c"byteswritten\00", align 1
@.str.34 = private unnamed_addr constant [24 x i8] c"SSL_handle_events(cssl)\00", align 1
@.str.35 = private unnamed_addr constant [33 x i8] c"SSL_read(cssl, buf, sizeof(buf))\00", align 1
@.str.36 = private unnamed_addr constant [10 x i8] c"bytesread\00", align 1
@.str.37 = private unnamed_addr constant [2 x i8] c"0\00", align 1

; Function Attrs: nounwind uwtable
define internal i32 @test_ncid_frame(i32 noundef %0) #0 {
  %2 = alloca i32, align 4
  %3 = alloca i32, align 4
  %4 = alloca ptr, align 8
  %5 = alloca ptr, align 8
  %6 = alloca ptr, align 8
  %7 = alloca ptr, align 8
  %8 = alloca i64, align 8
  %9 = alloca [80 x i8], align 16
  %10 = alloca i64, align 8
  %11 = alloca i64, align 8
  %12 = alloca ptr, align 8
  store i32 %0, ptr %2, align 4, !tbaa !9
  call void @llvm.lifetime.start.p0(i64 4, ptr %3) #4
  store i32 0, ptr %3, align 4, !tbaa !9
  call void @llvm.lifetime.start.p0(i64 8, ptr %4) #4
  %13 = call ptr @OSSL_QUIC_client_method()
  %14 = call ptr @SSL_CTX_new(ptr noundef %13)
  store ptr %14, ptr %4, align 8, !tbaa !11
  call void @llvm.lifetime.start.p0(i64 8, ptr %5) #4
  store ptr null, ptr %5, align 8, !tbaa !13
  call void @llvm.lifetime.start.p0(i64 8, ptr %6) #4
  store ptr null, ptr %6, align 8, !tbaa !15
  call void @llvm.lifetime.start.p0(i64 8, ptr %7) #4
  store ptr @.str.20, ptr %7, align 8, !tbaa !4
  call void @llvm.lifetime.start.p0(i64 8, ptr %8) #4
  %15 = load ptr, ptr %7, align 8, !tbaa !4
  %16 = call i64 @strlen(ptr noundef %15) #5
  store i64 %16, ptr %8, align 8, !tbaa !17
  call void @llvm.lifetime.start.p0(i64 80, ptr %9) #4
  call void @llvm.lifetime.start.p0(i64 8, ptr %10) #4
  call void @llvm.lifetime.start.p0(i64 8, ptr %11) #4
  call void @llvm.lifetime.start.p0(i64 8, ptr %12) #4
  store ptr null, ptr %12, align 8, !tbaa !19
  store i64 0, ptr @ncid_injected, align 8, !tbaa !17
  %17 = load ptr, ptr %4, align 8, !tbaa !11
  %18 = call i32 @test_ptr(ptr noundef @.str.14, i32 noundef 67, ptr noundef @.str.21, ptr noundef %17)
  %19 = icmp ne i32 %18, 0
  br i1 %19, label %21, label %20

20:                                               ; preds = %1
  br label %180

21:                                               ; preds = %1
  %22 = load ptr, ptr %4, align 8, !tbaa !11
  %23 = load ptr, ptr @cert, align 8, !tbaa !4
  %24 = load ptr, ptr @privkey, align 8, !tbaa !4
  %25 = call i32 @qtest_create_quic_objects(ptr noundef null, ptr noundef %22, ptr noundef null, ptr noundef %23, ptr noundef %24, i32 noundef 0, ptr noundef %5, ptr noundef %6, ptr noundef %12, ptr noundef null)
  %26 = icmp ne i32 %25, 0
  %27 = zext i1 %26 to i32
  %28 = call i32 @test_true(ptr noundef @.str.14, i32 noundef 71, ptr noundef @.str.22, i32 noundef %27)
  %29 = icmp ne i32 %28, 0
  br i1 %29, label %31, label %30

30:                                               ; preds = %21
  br label %180

31:                                               ; preds = %21
  %32 = load ptr, ptr %5, align 8, !tbaa !13
  %33 = load ptr, ptr %6, align 8, !tbaa !15
  %34 = call i32 @qtest_create_quic_connection(ptr noundef %32, ptr noundef %33)
  %35 = icmp ne i32 %34, 0
  %36 = zext i1 %35 to i32
  %37 = call i32 @test_true(ptr noundef @.str.14, i32 noundef 74, ptr noundef @.str.23, i32 noundef %36)
  %38 = icmp ne i32 %37, 0
  br i1 %38, label %40, label %39

39:                                               ; preds = %31
  br label %180

40:                                               ; preds = %31
  %41 = load ptr, ptr %6, align 8, !tbaa !15
  %42 = load ptr, ptr %7, align 8, !tbaa !4
  %43 = load i64, ptr %8, align 8, !tbaa !17
  %44 = trunc i64 %43 to i32
  %45 = call i32 @SSL_write(ptr noundef %41, ptr noundef %42, i32 noundef %44)
  %46 = load i64, ptr %8, align 8, !tbaa !17
  %47 = trunc i64 %46 to i32
  %48 = call i32 @test_int_eq(ptr noundef @.str.14, i32 noundef 77, ptr noundef @.str.24, ptr noundef @.str.25, i32 noundef %45, i32 noundef %47)
  %49 = icmp ne i32 %48, 0
  br i1 %49, label %51, label %50

50:                                               ; preds = %40
  br label %180

51:                                               ; preds = %40
  %52 = load ptr, ptr %5, align 8, !tbaa !13
  %53 = call i32 @ossl_quic_tserver_tick(ptr noundef %52)
  %54 = load ptr, ptr %5, align 8, !tbaa !13
  %55 = getelementptr inbounds [80 x i8], ptr %9, i64 0, i64 0
  %56 = call i32 @ossl_quic_tserver_read(ptr noundef %54, i64 noundef 0, ptr noundef %55, i64 noundef 80, ptr noundef %11)
  %57 = icmp ne i32 %56, 0
  %58 = zext i1 %57 to i32
  %59 = call i32 @test_true(ptr noundef @.str.14, i32 noundef 82, ptr noundef @.str.26, i32 noundef %58)
  %60 = icmp ne i32 %59, 0
  br i1 %60, label %62, label %61

61:                                               ; preds = %51
  br label %180

62:                                               ; preds = %51
  %63 = load ptr, ptr %7, align 8, !tbaa !4
  %64 = load i64, ptr %8, align 8, !tbaa !17
  %65 = getelementptr inbounds [80 x i8], ptr %9, i64 0, i64 0
  %66 = load i64, ptr %11, align 8, !tbaa !17
  %67 = call i32 @test_mem_eq(ptr noundef @.str.14, i32 noundef 90, ptr noundef @.str.27, ptr noundef @.str.28, ptr noundef %63, i64 noundef %64, ptr noundef %65, i64 noundef %66)
  %68 = icmp ne i32 %67, 0
  br i1 %68, label %70, label %69

69:                                               ; preds = %62
  br label %180

70:                                               ; preds = %62
  %71 = load ptr, ptr %12, align 8, !tbaa !19
  %72 = call i32 @qtest_fault_set_packet_plain_listener(ptr noundef %71, ptr noundef @add_ncid_frame_cb, ptr noundef null)
  %73 = icmp ne i32 %72, 0
  %74 = zext i1 %73 to i32
  %75 = call i32 @test_true(ptr noundef @.str.14, i32 noundef 99, ptr noundef @.str.29, i32 noundef %74)
  %76 = icmp ne i32 %75, 0
  br i1 %76, label %78, label %77

77:                                               ; preds = %70
  br label %180

78:                                               ; preds = %70
  %79 = load i32, ptr %2, align 4, !tbaa !9
  %80 = icmp ne i32 %79, 0
  br i1 %80, label %89, label %81

81:                                               ; preds = %78
  %82 = load ptr, ptr %5, align 8, !tbaa !13
  %83 = call i32 @ossl_quic_tserver_set_new_local_cid(ptr noundef %82, ptr noundef @test_ncid_frame.conn_id)
  %84 = icmp ne i32 %83, 0
  %85 = zext i1 %84 to i32
  %86 = call i32 @test_true(ptr noundef @.str.14, i32 noundef 101, ptr noundef @.str.30, i32 noundef %85)
  %87 = icmp ne i32 %86, 0
  br i1 %87, label %89, label %88

88:                                               ; preds = %81
  br label %180

89:                                               ; preds = %81, %78
  %90 = load ptr, ptr %5, align 8, !tbaa !13
  %91 = load ptr, ptr %7, align 8, !tbaa !4
  %92 = load i64, ptr %8, align 8, !tbaa !17
  %93 = call i32 @ossl_quic_tserver_write(ptr noundef %90, i64 noundef 0, ptr noundef %91, i64 noundef %92, ptr noundef %10)
  %94 = icmp ne i32 %93, 0
  %95 = zext i1 %94 to i32
  %96 = call i32 @test_true(ptr noundef @.str.14, i32 noundef 105, ptr noundef @.str.31, i32 noundef %95)
  %97 = icmp ne i32 %96, 0
  br i1 %97, label %99, label %98

98:                                               ; preds = %89
  br label %180

99:                                               ; preds = %89
  %100 = load i64, ptr @ncid_injected, align 8, !tbaa !17
  %101 = icmp ne i64 %100, 0
  %102 = zext i1 %101 to i32
  %103 = call i32 @test_true(ptr noundef @.str.14, i32 noundef 108, ptr noundef @.str.32, i32 noundef %102)
  %104 = icmp ne i32 %103, 0
  br i1 %104, label %106, label %105

105:                                              ; preds = %99
  br label %180

106:                                              ; preds = %99
  %107 = load i64, ptr %8, align 8, !tbaa !17
  %108 = load i64, ptr %10, align 8, !tbaa !17
  %109 = call i32 @test_size_t_eq(ptr noundef @.str.14, i32 noundef 111, ptr noundef @.str.25, ptr noundef @.str.33, i64 noundef %107, i64 noundef %108)
  %110 = icmp ne i32 %109, 0
  br i1 %110, label %112, label %111

111:                                              ; preds = %106
  br label %180

112:                                              ; preds = %106
  %113 = load ptr, ptr %5, align 8, !tbaa !13
  %114 = call i32 @ossl_quic_tserver_tick(ptr noundef %113)
  %115 = load ptr, ptr %6, align 8, !tbaa !15
  %116 = call i32 @SSL_handle_events(ptr noundef %115)
  %117 = icmp ne i32 %116, 0
  %118 = zext i1 %117 to i32
  %119 = call i32 @test_true(ptr noundef @.str.14, i32 noundef 115, ptr noundef @.str.34, i32 noundef %118)
  %120 = icmp ne i32 %119, 0
  br i1 %120, label %122, label %121

121:                                              ; preds = %112
  br label %180

122:                                              ; preds = %112
  %123 = load ptr, ptr %6, align 8, !tbaa !15
  %124 = getelementptr inbounds [80 x i8], ptr %9, i64 0, i64 0
  %125 = call i32 @SSL_read(ptr noundef %123, ptr noundef %124, i32 noundef 80)
  %126 = load i64, ptr %8, align 8, !tbaa !17
  %127 = trunc i64 %126 to i32
  %128 = call i32 @test_int_eq(ptr noundef @.str.14, i32 noundef 118, ptr noundef @.str.35, ptr noundef @.str.25, i32 noundef %125, i32 noundef %127)
  %129 = icmp ne i32 %128, 0
  br i1 %129, label %131, label %130

130:                                              ; preds = %122
  br label %180

131:                                              ; preds = %122
  %132 = load ptr, ptr %7, align 8, !tbaa !4
  %133 = load i64, ptr %8, align 8, !tbaa !17
  %134 = getelementptr inbounds [80 x i8], ptr %9, i64 0, i64 0
  %135 = load i64, ptr %11, align 8, !tbaa !17
  %136 = call i32 @test_mem_eq(ptr noundef @.str.14, i32 noundef 121, ptr noundef @.str.27, ptr noundef @.str.28, ptr noundef %132, i64 noundef %133, ptr noundef %134, i64 noundef %135)
  %137 = icmp ne i32 %136, 0
  br i1 %137, label %139, label %138

138:                                              ; preds = %131
  br label %180

139:                                              ; preds = %131
  %140 = load ptr, ptr %6, align 8, !tbaa !15
  %141 = load ptr, ptr %7, align 8, !tbaa !4
  %142 = load i64, ptr %8, align 8, !tbaa !17
  %143 = trunc i64 %142 to i32
  %144 = call i32 @SSL_write(ptr noundef %140, ptr noundef %141, i32 noundef %143)
  %145 = load i64, ptr %8, align 8, !tbaa !17
  %146 = trunc i64 %145 to i32
  %147 = call i32 @test_int_eq(ptr noundef @.str.14, i32 noundef 124, ptr noundef @.str.24, ptr noundef @.str.25, i32 noundef %144, i32 noundef %146)
  %148 = icmp ne i32 %147, 0
  br i1 %148, label %150, label %149

149:                                              ; preds = %139
  br label %180

150:                                              ; preds = %139
  %151 = load ptr, ptr %5, align 8, !tbaa !13
  %152 = call i32 @ossl_quic_tserver_tick(ptr noundef %151)
  %153 = load ptr, ptr %5, align 8, !tbaa !13
  %154 = getelementptr inbounds [80 x i8], ptr %9, i64 0, i64 0
  %155 = call i32 @ossl_quic_tserver_read(ptr noundef %153, i64 noundef 0, ptr noundef %154, i64 noundef 80, ptr noundef %11)
  %156 = icmp ne i32 %155, 0
  %157 = zext i1 %156 to i32
  %158 = call i32 @test_true(ptr noundef @.str.14, i32 noundef 129, ptr noundef @.str.26, i32 noundef %157)
  %159 = icmp ne i32 %158, 0
  br i1 %159, label %161, label %160

160:                                              ; preds = %150
  br label %180

161:                                              ; preds = %150
  %162 = load i32, ptr %2, align 4, !tbaa !9
  %163 = icmp ne i32 %162, 0
  br i1 %163, label %164, label %170

164:                                              ; preds = %161
  %165 = load i64, ptr %11, align 8, !tbaa !17
  %166 = call i32 @test_size_t_eq(ptr noundef @.str.14, i32 noundef 133, ptr noundef @.str.36, ptr noundef @.str.37, i64 noundef %165, i64 noundef 0)
  %167 = icmp ne i32 %166, 0
  br i1 %167, label %169, label %168

168:                                              ; preds = %164
  br label %180

169:                                              ; preds = %164
  br label %179

170:                                              ; preds = %161
  %171 = load ptr, ptr %7, align 8, !tbaa !4
  %172 = load i64, ptr %8, align 8, !tbaa !17
  %173 = getelementptr inbounds [80 x i8], ptr %9, i64 0, i64 0
  %174 = load i64, ptr %11, align 8, !tbaa !17
  %175 = call i32 @test_mem_eq(ptr noundef @.str.14, i32 noundef 136, ptr noundef @.str.27, ptr noundef @.str.28, ptr noundef %171, i64 noundef %172, ptr noundef %173, i64 noundef %174)
  %176 = icmp ne i32 %175, 0
  br i1 %176, label %178, label %177

177:                                              ; preds = %170
  br label %180

178:                                              ; preds = %170
  br label %179

179:                                              ; preds = %178, %169
  store i32 1, ptr %3, align 4, !tbaa !9
  br label %180

180:                                              ; preds = %179, %177, %168, %160, %149, %138, %130, %121, %111, %105, %98, %88, %77, %69, %61, %50, %39, %30, %20
  %181 = load ptr, ptr %12, align 8, !tbaa !19
  call void @qtest_fault_free(ptr noundef %181)
  %182 = load ptr, ptr %6, align 8, !tbaa !15
  call void @SSL_free(ptr noundef %182)
  %183 = load ptr, ptr %5, align 8, !tbaa !13
  call void @ossl_quic_tserver_free(ptr noundef %183)
  %184 = load ptr, ptr %4, align 8, !tbaa !11
  call void @SSL_CTX_free(ptr noundef %184)
  %185 = load i32, ptr %3, align 4, !tbaa !9
  call void @llvm.lifetime.end.p0(i64 8, ptr %12) #4
  call void @llvm.lifetime.end.p0(i64 8, ptr %11) #4
  call void @llvm.lifetime.end.p0(i64 8, ptr %10) #4
  call void @llvm.lifetime.end.p0(i64 80, ptr %9) #4
  call void @llvm.lifetime.end.p0(i64 8, ptr %8) #4
  call void @llvm.lifetime.end.p0(i64 8, ptr %7) #4
  call void @llvm.lifetime.end.p0(i64 8, ptr %6) #4
  call void @llvm.lifetime.end.p0(i64 8, ptr %5) #4
  call void @llvm.lifetime.end.p0(i64 8, ptr %4) #4
  call void @llvm.lifetime.end.p0(i64 4, ptr %3) #4
  ret i32 %185
}