; Function Attrs: nounwind uwtable
define internal range(i32 0, 2) i32 @test_ncid_frame(i32 noundef %0) #1 {
  %2 = alloca ptr, align 8
  %3 = alloca ptr, align 8
  %4 = alloca [80 x i8], align 16
  %5 = alloca i64, align 8
  %6 = alloca i64, align 8
  %7 = alloca ptr, align 8
  %8 = tail call ptr @OSSL_QUIC_client_method() #4
  %9 = tail call ptr @SSL_CTX_new(ptr noundef %8) #4
  call void @llvm.lifetime.start.p0(i64 8, ptr nonnull %2) #4
  store ptr null, ptr %2, align 8, !tbaa !9
  call void @llvm.lifetime.start.p0(i64 8, ptr nonnull %3) #4
  store ptr null, ptr %3, align 8, !tbaa !11
  call void @llvm.lifetime.start.p0(i64 80, ptr nonnull %4) #4
  call void @llvm.lifetime.start.p0(i64 8, ptr nonnull %5) #4
  call void @llvm.lifetime.start.p0(i64 8, ptr nonnull %6) #4
  call void @llvm.lifetime.start.p0(i64 8, ptr nonnull %7) #4
  store ptr null, ptr %7, align 8, !tbaa !13
  store i64 0, ptr @ncid_injected, align 8, !tbaa !15
  %10 = tail call i32 @test_ptr(ptr noundef nonnull @.str.14, i32 noundef 67, ptr noundef nonnull @.str.21, ptr noundef %9) #4
  %.not = icmp eq i32 %10, 0
  br i1 %.not, label %101, label %11

11:                                               ; preds = %1
  %12 = load ptr, ptr @cert, align 8, !tbaa !4
  %13 = load ptr, ptr @privkey, align 8, !tbaa !4
  %14 = call i32 @qtest_create_quic_objects(ptr noundef null, ptr noundef %9, ptr noundef null, ptr noundef %12, ptr noundef %13, i32 noundef 0, ptr noundef nonnull %2, ptr noundef nonnull %3, ptr noundef nonnull %7, ptr noundef null) #4
  %15 = icmp ne i32 %14, 0
  %16 = zext i1 %15 to i32
  %17 = call i32 @test_true(ptr noundef nonnull @.str.14, i32 noundef 71, ptr noundef nonnull @.str.22, i32 noundef %16) #4
  %.not22 = icmp eq i32 %17, 0
  br i1 %.not22, label %101, label %18

18:                                               ; preds = %11
  %19 = load ptr, ptr %2, align 8, !tbaa !9
  %20 = load ptr, ptr %3, align 8, !tbaa !11
  %21 = call i32 @qtest_create_quic_connection(ptr noundef %19, ptr noundef %20) #4
  %22 = icmp ne i32 %21, 0
  %23 = zext i1 %22 to i32
  %24 = call i32 @test_true(ptr noundef nonnull @.str.14, i32 noundef 74, ptr noundef nonnull @.str.23, i32 noundef %23) #4
  %.not23 = icmp eq i32 %24, 0
  br i1 %.not23, label %101, label %25

25:                                               ; preds = %18
  %26 = load ptr, ptr %3, align 8, !tbaa !11
  %27 = call i32 @SSL_write(ptr noundef %26, ptr noundef nonnull @.str.20, i32 noundef 12) #4
  %28 = call i32 @test_int_eq(ptr noundef nonnull @.str.14, i32 noundef 77, ptr noundef nonnull @.str.24, ptr noundef nonnull @.str.25, i32 noundef %27, i32 noundef 12) #4
  %.not24 = icmp eq i32 %28, 0
  br i1 %.not24, label %101, label %29

29:                                               ; preds = %25
  %30 = load ptr, ptr %2, align 8, !tbaa !9
  %31 = call i32 @ossl_quic_tserver_tick(ptr noundef %30) #4
  %32 = load ptr, ptr %2, align 8, !tbaa !9
  %33 = call i32 @ossl_quic_tserver_read(ptr noundef %32, i64 noundef 0, ptr noundef nonnull %4, i64 noundef 80, ptr noundef nonnull %6) #4
  %34 = icmp ne i32 %33, 0
  %35 = zext i1 %34 to i32
  %36 = call i32 @test_true(ptr noundef nonnull @.str.14, i32 noundef 82, ptr noundef nonnull @.str.26, i32 noundef %35) #4
  %.not25 = icmp eq i32 %36, 0
  br i1 %.not25, label %101, label %37

37:                                               ; preds = %29
  %38 = load i64, ptr %6, align 8, !tbaa !15
  %39 = call i32 @test_mem_eq(ptr noundef nonnull @.str.14, i32 noundef 90, ptr noundef nonnull @.str.27, ptr noundef nonnull @.str.28, ptr noundef nonnull @.str.20, i64 noundef 12, ptr noundef nonnull %4, i64 noundef %38) #4
  %.not26 = icmp eq i32 %39, 0
  br i1 %.not26, label %101, label %40

40:                                               ; preds = %37
  %41 = load ptr, ptr %7, align 8, !tbaa !13
  %42 = call i32 @qtest_fault_set_packet_plain_listener(ptr noundef %41, ptr noundef nonnull @add_ncid_frame_cb, ptr noundef null) #4
  %43 = icmp ne i32 %42, 0
  %44 = zext i1 %43 to i32
  %45 = call i32 @test_true(ptr noundef nonnull @.str.14, i32 noundef 99, ptr noundef nonnull @.str.29, i32 noundef %44) #4
  %.not27 = icmp eq i32 %45, 0
  br i1 %.not27, label %101, label %46

46:                                               ; preds = %40
  %.not28 = icmp eq i32 %0, 0
  br i1 %.not28, label %47, label %53

47:                                               ; preds = %46
  %48 = load ptr, ptr %2, align 8, !tbaa !9
  %49 = call i32 @ossl_quic_tserver_set_new_local_cid(ptr noundef %48, ptr noundef nonnull @test_ncid_frame.conn_id) #4
  %50 = icmp ne i32 %49, 0
  %51 = zext i1 %50 to i32
  %52 = call i32 @test_true(ptr noundef nonnull @.str.14, i32 noundef 101, ptr noundef nonnull @.str.30, i32 noundef %51) #4
  %.not29 = icmp eq i32 %52, 0
  br i1 %.not29, label %101, label %53

53:                                               ; preds = %47, %46
  %54 = load ptr, ptr %2, align 8, !tbaa !9
  %55 = call i32 @ossl_quic_tserver_write(ptr noundef %54, i64 noundef 0, ptr noundef nonnull @.str.20, i64 noundef 12, ptr noundef nonnull %5) #4
  %56 = icmp ne i32 %55, 0
  %57 = zext i1 %56 to i32
  %58 = call i32 @test_true(ptr noundef nonnull @.str.14, i32 noundef 105, ptr noundef nonnull @.str.31, i32 noundef %57) #4
  %.not30 = icmp eq i32 %58, 0
  br i1 %.not30, label %101, label %59

59:                                               ; preds = %53
  %60 = load i64, ptr @ncid_injected, align 8, !tbaa !15
  %61 = icmp ne i64 %60, 0
  %62 = zext i1 %61 to i32
  %63 = call i32 @test_true(ptr noundef nonnull @.str.14, i32 noundef 108, ptr noundef nonnull @.str.32, i32 noundef %62) #4
  %.not31 = icmp eq i32 %63, 0
  br i1 %.not31, label %101, label %64

64:                                               ; preds = %59
  %65 = load i64, ptr %5, align 8, !tbaa !15
  %66 = call i32 @test_size_t_eq(ptr noundef nonnull @.str.14, i32 noundef 111, ptr noundef nonnull @.str.25, ptr noundef nonnull @.str.33, i64 noundef 12, i64 noundef %65) #4
  %.not32 = icmp eq i32 %66, 0
  br i1 %.not32, label %101, label %67

67:                                               ; preds = %64
  %68 = load ptr, ptr %2, align 8, !tbaa !9
  %69 = call i32 @ossl_quic_tserver_tick(ptr noundef %68) #4
  %70 = load ptr, ptr %3, align 8, !tbaa !11
  %71 = call i32 @SSL_handle_events(ptr noundef %70) #4
  %72 = icmp ne i32 %71, 0
  %73 = zext i1 %72 to i32
  %74 = call i32 @test_true(ptr noundef nonnull @.str.14, i32 noundef 115, ptr noundef nonnull @.str.34, i32 noundef %73) #4
  %.not33 = icmp eq i32 %74, 0
  br i1 %.not33, label %101, label %75

75:                                               ; preds = %67
  %76 = load ptr, ptr %3, align 8, !tbaa !11
  %77 = call i32 @SSL_read(ptr noundef %76, ptr noundef nonnull %4, i32 noundef 80) #4
  %78 = call i32 @test_int_eq(ptr noundef nonnull @.str.14, i32 noundef 118, ptr noundef nonnull @.str.35, ptr noundef nonnull @.str.25, i32 noundef %77, i32 noundef 12) #4
  %.not34 = icmp eq i32 %78, 0
  br i1 %.not34, label %101, label %79

79:                                               ; preds = %75
  %80 = load i64, ptr %6, align 8, !tbaa !15
  %81 = call i32 @test_mem_eq(ptr noundef nonnull @.str.14, i32 noundef 121, ptr noundef nonnull @.str.27, ptr noundef nonnull @.str.28, ptr noundef nonnull @.str.20, i64 noundef 12, ptr noundef nonnull %4, i64 noundef %80) #4
  %.not35 = icmp eq i32 %81, 0
  br i1 %.not35, label %101, label %82

82:                                               ; preds = %79
  %83 = load ptr, ptr %3, align 8, !tbaa !11
  %84 = call i32 @SSL_write(ptr noundef %83, ptr noundef nonnull @.str.20, i32 noundef 12) #4
  %85 = call i32 @test_int_eq(ptr noundef nonnull @.str.14, i32 noundef 124, ptr noundef nonnull @.str.24, ptr noundef nonnull @.str.25, i32 noundef %84, i32 noundef 12) #4
  %.not36 = icmp eq i32 %85, 0
  br i1 %.not36, label %101, label %86

86:                                               ; preds = %82
  %87 = load ptr, ptr %2, align 8, !tbaa !9
  %88 = call i32 @ossl_quic_tserver_tick(ptr noundef %87) #4
  %89 = load ptr, ptr %2, align 8, !tbaa !9
  %90 = call i32 @ossl_quic_tserver_read(ptr noundef %89, i64 noundef 0, ptr noundef nonnull %4, i64 noundef 80, ptr noundef nonnull %6) #4
  %91 = icmp ne i32 %90, 0
  %92 = zext i1 %91 to i32
  %93 = call i32 @test_true(ptr noundef nonnull @.str.14, i32 noundef 129, ptr noundef nonnull @.str.26, i32 noundef %92) #4
  %.not37 = icmp eq i32 %93, 0
  br i1 %.not37, label %101, label %94

94:                                               ; preds = %86
  %95 = load i64, ptr %6, align 8, !tbaa !15
  br i1 %.not28, label %98, label %96

96:                                               ; preds = %94
  %97 = call i32 @test_size_t_eq(ptr noundef nonnull @.str.14, i32 noundef 133, ptr noundef nonnull @.str.36, ptr noundef nonnull @.str.37, i64 noundef %95, i64 noundef 0) #4
  %.not39 = icmp eq i32 %97, 0
  br i1 %.not39, label %101, label %100

98:                                               ; preds = %94
  %99 = call i32 @test_mem_eq(ptr noundef nonnull @.str.14, i32 noundef 136, ptr noundef nonnull @.str.27, ptr noundef nonnull @.str.28, ptr noundef nonnull @.str.20, i64 noundef 12, ptr noundef nonnull %4, i64 noundef %95) #4
  %.not38 = icmp eq i32 %99, 0
  br i1 %.not38, label %101, label %100

100:                                              ; preds = %98, %96
  br label %101

101:                                              ; preds = %98, %96, %86, %82, %79, %75, %67, %64, %59, %53, %47, %40, %37, %29, %25, %18, %11, %1, %100
  %.0 = phi i32 [ 1, %100 ], [ 0, %96 ], [ 0, %98 ], [ 0, %86 ], [ 0, %82 ], [ 0, %79 ], [ 0, %75 ], [ 0, %67 ], [ 0, %64 ], [ 0, %59 ], [ 0, %53 ], [ 0, %47 ], [ 0, %40 ], [ 0, %37 ], [ 0, %29 ], [ 0, %25 ], [ 0, %18 ], [ 0, %11 ], [ 0, %1 ]
  %102 = load ptr, ptr %7, align 8, !tbaa !13
  call void @qtest_fault_free(ptr noundef %102) #4
  %103 = load ptr, ptr %3, align 8, !tbaa !11
  call void @SSL_free(ptr noundef %103) #4
  %104 = load ptr, ptr %2, align 8, !tbaa !9
  call void @ossl_quic_tserver_free(ptr noundef %104) #4
  call void @SSL_CTX_free(ptr noundef %9) #4
  call void @llvm.lifetime.end.p0(i64 8, ptr nonnull %7) #4
  call void @llvm.lifetime.end.p0(i64 8, ptr nonnull %6) #4
  call void @llvm.lifetime.end.p0(i64 8, ptr nonnull %5) #4
  call void @llvm.lifetime.end.p0(i64 80, ptr nonnull %4) #4
  call void @llvm.lifetime.end.p0(i64 8, ptr nonnull %3) #4
  call void @llvm.lifetime.end.p0(i64 8, ptr nonnull %2) #4
  ret i32 %.0
}